; Function Attrs: mustprogress uwtable
define void @_Z17fs_get_cache_fileRKNSt7__cxx1112basic_stringIcSt11char_traitsIcESaIcEEE(ptr dead_on_unwind noalias writable sret(%"class.std::__cxx11::basic_string") align 8 %0, ptr noundef nonnull align 8 dereferenceable(32) %1) local_unnamed_addr #3 personality ptr @__gxx_personality_v0 {
  %3 = alloca %"class.std::__cxx11::basic_string", align 8
  %4 = alloca %"class.std::__cxx11::basic_string", align 8
  %5 = tail call noundef i64 @_ZNKSt7__cxx1112basic_stringIcSt11char_traitsIcESaIcEE4findEcm(ptr noundef nonnull align 8 dereferenceable(32) %1, i8 noundef signext 47, i64 noundef 0) #37
  %6 = icmp eq i64 %5, -1
  br i1 %6, label %8, label %7

7:                                                ; preds = %2
  tail call void (ptr, i32, ptr, ...) @ggml_abort(ptr noundef nonnull @.str.16, i32 noundef 886, ptr noundef nonnull @.str.17, ptr noundef nonnull @.str.50) #39
  unreachable

8:                                                ; preds = %2
  call void @llvm.lifetime.start.p0(i64 32, ptr nonnull %3) #37
  call void @_Z22fs_get_cache_directoryB5cxx11v(ptr dead_on_unwind nonnull writable sret(%"class.std::__cxx11::basic_string") align 8 %3)
  %9 = invoke noundef zeroext i1 @_Z32fs_create_directory_with_parentsRKNSt7__cxx1112basic_stringIcSt11char_traitsIcESaIcEEE(ptr noundef nonnull align 8 dereferenceable(32) %3)
          to label %10 unwind label %15

10:                                               ; preds = %8
  br i1 %9, label %29, label %11

11:                                               ; preds = %10
  %12 = call ptr @__cxa_allocate_exception(i64 16) #37
  call void @llvm.lifetime.start.p0(i64 32, ptr nonnull %4) #37
  invoke void @_ZStplIcSt11char_traitsIcESaIcEENSt7__cxx1112basic_stringIT_T0_T1_EEPKS5_RKS8_(ptr dead_on_unwind nonnull writable sret(%"class.std::__cxx11::basic_string") align 8 %4, ptr noundef nonnull @.str.51, ptr noundef nonnull align 8 dereferenceable(32) %3)
          to label %13 unwind label %_ZNSt7__cxx1112basic_stringIcSt11char_traitsIcESaIcEED2Ev.exit.thread

13:                                               ; preds = %11
  invoke void @_ZNSt13runtime_errorC1ERKNSt7__cxx1112basic_stringIcSt11char_traitsIcESaIcEEE(ptr noundef nonnull align 8 dereferenceable(16) %12, ptr noundef nonnull align 8 dereferenceable(32) %4)
          to label %14 unwind label %18

14:                                               ; preds = %13
  invoke void @__cxa_throw(ptr nonnull %12, ptr nonnull @_ZTISt13runtime_error, ptr nonnull @_ZNSt13runtime_errorD1Ev) #39
          to label %48 unwind label %18

15:                                               ; preds = %29, %8
  %16 = landingpad { ptr, i32 }
          cleanup
  br label %39

_ZNSt7__cxx1112basic_stringIcSt11char_traitsIcESaIcEED2Ev.exit.thread: ; preds = %11
  %17 = landingpad { ptr, i32 }
          cleanup
  call void @llvm.lifetime.end.p0(i64 32, ptr nonnull %4) #37
  br label %28

18:                                               ; preds = %14, %13
  %.0 = phi i1 [ false, %14 ], [ true, %13 ]
  %19 = landingpad { ptr, i32 }
          cleanup
  %20 = load ptr, ptr %4, align 8, !tbaa !25
  %21 = getelementptr inbounds nuw i8, ptr %4, i64 16
  %22 = icmp eq ptr %20, %21
  br i1 %22, label %_ZNKSt7__cxx1112basic_stringIcSt11char_traitsIcESaIcEE11_M_is_localEv.exit.thread.i.i, label %_ZNSt7__cxx1112basic_stringIcSt11char_traitsIcESaIcEED2Ev.exit

_ZNKSt7__cxx1112basic_stringIcSt11char_traitsIcESaIcEE11_M_is_localEv.exit.thread.i.i: ; preds = %18
  %23 = getelementptr inbounds nuw i8, ptr %4, i64 8
  %24 = load i64, ptr %23, align 8, !tbaa !27
  %25 = icmp ult i64 %24, 16
  call void @llvm.assume(i1 %25)
  call void @llvm.lifetime.end.p0(i64 32, ptr nonnull %4) #37
  br i1 %.0, label %28, label %39

_ZNSt7__cxx1112basic_stringIcSt11char_traitsIcESaIcEED2Ev.exit: ; preds = %18
  %26 = load i64, ptr %21, align 8, !tbaa !28
  %27 = add i64 %26, 1
  call void @_ZdlPvm(ptr noundef %20, i64 noundef %27) #40
  call void @llvm.lifetime.end.p0(i64 32, ptr nonnull %4) #37
  br i1 %.0, label %28, label %39

28:                                               ; preds = %_ZNKSt7__cxx1112basic_stringIcSt11char_traitsIcESaIcEE11_M_is_localEv.exit.thread.i.i, %_ZNSt7__cxx1112basic_stringIcSt11char_traitsIcESaIcEED2Ev.exit.thread, %_ZNSt7__cxx1112basic_stringIcSt11char_traitsIcESaIcEED2Ev.exit
  %.pn20 = phi { ptr, i32 } [ %17, %_ZNSt7__cxx1112basic_stringIcSt11char_traitsIcESaIcEED2Ev.exit.thread ], [ %19, %_ZNSt7__cxx1112basic_stringIcSt11char_traitsIcESaIcEED2Ev.exit ], [ %19, %_ZNKSt7__cxx1112basic_stringIcSt11char_traitsIcESaIcEE11_M_is_localEv.exit.thread.i.i ]
  call void @__cxa_free_exception(ptr %12) #37
  br label %39

29:                                               ; preds = %10
  invoke void @_ZStplIcSt11char_traitsIcESaIcEENSt7__cxx1112basic_stringIT_T0_T1_EERKS8_SA_(ptr dead_on_unwind writable sret(%"class.std::__cxx11::basic_string") align 8 %0, ptr noundef nonnull align 8 dereferenceable(32) %3, ptr noundef nonnull align 8 dereferenceable(32) %1)
          to label %30 unwind label %15

30:                                               ; preds = %29
  %31 = load ptr, ptr %3, align 8, !tbaa !25
  %32 = getelementptr inbounds nuw i8, ptr %3, i64 16
  %33 = icmp eq ptr %31, %32
  br i1 %33, label %_ZNKSt7__cxx1112basic_stringIcSt11char_traitsIcESaIcEE11_M_is_localEv.exit.thread.i.i13, label %_ZNKSt7__cxx1112basic_stringIcSt11char_traitsIcESaIcEE11_M_is_localEv.exit.i.i12

_ZNKSt7__cxx1112basic_stringIcSt11char_traitsIcESaIcEE11_M_is_localEv.exit.thread.i.i13: ; preds = %30
  %34 = getelementptr inbounds nuw i8, ptr %3, i64 8
  %35 = load i64, ptr %34, align 8, !tbaa !27
  %36 = icmp ult i64 %35, 16
  call void @llvm.assume(i1 %36)
  br label %_ZNSt7__cxx1112basic_stringIcSt11char_traitsIcESaIcEED2Ev.exit14

_ZNKSt7__cxx1112basic_stringIcSt11char_traitsIcESaIcEE11_M_is_localEv.exit.i.i12: ; preds = %30
  %37 = load i64, ptr %32, align 8, !tbaa !28
  %38 = add i64 %37, 1
  call void @_ZdlPvm(ptr noundef %31, i64 noundef %38) #40
  br label %_ZNSt7__cxx1112basic_stringIcSt11char_traitsIcESaIcEED2Ev.exit14

_ZNSt7__cxx1112basic_stringIcSt11char_traitsIcESaIcEED2Ev.exit14: ; preds = %_ZNKSt7__cxx1112basic_stringIcSt11char_traitsIcESaIcEE11_M_is_localEv.exit.thread.i.i13, %_ZNKSt7__cxx1112basic_stringIcSt11char_traitsIcESaIcEE11_M_is_localEv.exit.i.i12
  call void @llvm.lifetime.end.p0(i64 32, ptr nonnull %3) #37
  ret void

39:                                               ; preds = %_ZNKSt7__cxx1112basic_stringIcSt11char_traitsIcESaIcEE11_M_is_localEv.exit.thread.i.i, %_ZNSt7__cxx1112basic_stringIcSt11char_traitsIcESaIcEED2Ev.exit, %28, %15
  %.pn10 = phi { ptr, i32 } [ %16, %15 ], [ %.pn20, %28 ], [ %19, %_ZNSt7__cxx1112basic_stringIcSt11char_traitsIcESaIcEED2Ev.exit ], [ %19, %_ZNKSt7__cxx1112basic_stringIcSt11char_traitsIcESaIcEE11_M_is_localEv.exit.thread.i.i ]
  %40 = load ptr, ptr %3, align 8, !tbaa !25
  %41 = getelementptr inbounds nuw i8, ptr %3, i64 16
  %42 = icmp eq ptr %40, %41
  br i1 %42, label %_ZNKSt7__cxx1112basic_stringIcSt11char_traitsIcESaIcEE11_M_is_localEv.exit.thread.i.i16, label %_ZNKSt7__cxx1112basic_stringIcSt11char_traitsIcESaIcEE11_M_is_localEv.exit.i.i15

_ZNKSt7__cxx1112basic_stringIcSt11char_traitsIcESaIcEE11_M_is_localEv.exit.thread.i.i16: ; preds = %39
  %43 = getelementptr inbounds nuw i8, ptr %3, i64 8
  %44 = load i64, ptr %43, align 8, !tbaa !27
  %45 = icmp ult i64 %44, 16
  call void @llvm.assume(i1 %45)
  br label %_ZNSt7__cxx1112basic_stringIcSt11char_traitsIcESaIcEED2Ev.exit17

_ZNKSt7__cxx1112basic_stringIcSt11char_traitsIcESaIcEE11_M_is_localEv.exit.i.i15: ; preds = %39
  %46 = load i64, ptr %41, align 8, !tbaa !28
  %47 = add i64 %46, 1
  call void @_ZdlPvm(ptr noundef %40, i64 noundef %47) #40
  br label %_ZNSt7__cxx1112basic_stringIcSt11char_traitsIcESaIcEED2Ev.exit17

_ZNSt7__cxx1112basic_stringIcSt11char_traitsIcESaIcEED2Ev.exit17: ; preds = %_ZNKSt7__cxx1112basic_stringIcSt11char_traitsIcESaIcEE11_M_is_localEv.exit.thread.i.i16, %_ZNKSt7__cxx1112basic_stringIcSt11char_traitsIcESaIcEE11_M_is_localEv.exit.i.i15
  call void @llvm.lifetime.end.p0(i64 32, ptr nonnull %3) #37
  resume { ptr, i32 } %.pn10

48:                                               ; preds = %14
  unreachable
}